target datalayout = "e-m:e-p270:32:32-p271:32:32-p272:64:64-i64:64-i128:128-f80:128-n8:16:32:64-S128"
target triple = "x86_64-pc-linux-gnu"

%struct.pmix_proc_type_t = type { i32, i8, i8, i8, i8 }
%struct.pmix_lock_t = type { i32, %struct.pmix_mutex_t, %union.pthread_cond_t, i8 }
%struct.pmix_mutex_t = type { %struct.pmix_object_t, %union.pthread_mutex_t }
%struct.pmix_object_t = type { %union.pthread_mutex_t, ptr, i32, %struct.pmix_tma }
%struct.pmix_tma = type { ptr, ptr, ptr, ptr, ptr, ptr, ptr, ptr }
%union.pthread_mutex_t = type { %struct.__pthread_mutex_s }
%struct.__pthread_mutex_s = type { i32, i32, i32, i32, i32, i16, i16, %struct.__pthread_internal_list }
%struct.__pthread_internal_list = type { ptr, ptr }
%union.pthread_cond_t = type { %struct.__pthread_cond_s }
%struct.__pthread_cond_s = type { %union.__atomic_wide_counter, %union.__atomic_wide_counter, [2 x i32], [2 x i32], i32, i32, [2 x i32] }
%union.__atomic_wide_counter = type { i64 }
%struct.pmix_proc = type { [256 x i8], i32 }
%struct.timeval = type { i64, i64 }
%struct.pmix_pointer_array_t = type { %struct.pmix_object_t, i32, i32, i32, i32, i32, ptr, ptr }
%struct.pmix_list_t = type { %struct.pmix_object_t, %struct.pmix_list_item_t, i64 }
%struct.pmix_list_item_t = type { %struct.pmix_object_t, ptr, ptr, i32 }
%struct.pmix_iof_flags_t = type { i8, i8, i8, i8, i8, i8, i8, ptr, ptr, i8, i8, i8, i8, i8, i8 }
%struct.event = type { %struct.event_callback, %union.anon.1, i32, ptr, %union.anon.3, i16, i16, %struct.timeval }
%struct.event_callback = type { %struct.anon, i16, i8, i8, %union.anon.0, ptr }
%struct.anon = type { ptr, ptr }
%union.anon.0 = type { ptr }
%union.anon.1 = type { %struct.anon.2 }
%struct.anon.2 = type { ptr, ptr }
%union.anon.3 = type { %struct.anon.4 }
%struct.anon.4 = type { %struct.anon.5, %struct.timeval }
%struct.anon.5 = type { ptr, ptr }
%struct.pmix_client_globals_t = type { ptr, i8, %struct.pmix_list_t, %struct.pmix_pointer_array_t, %struct.pmix_list_t, i32, i32, i32, i32, i32, i32, i32, i32, i32, i32, i32, i32, i32, i32, i32, i32, %struct.pmix_iof_sink_t, %struct.pmix_iof_sink_t, i32, i32 }
%struct.pmix_iof_sink_t = type { %struct.pmix_list_item_t, %struct.pmix_proc, i16, %struct.pmix_iof_write_event_t, i8, i8, i8 }
%struct.pmix_iof_write_event_t = type { %struct.pmix_list_item_t, i8, i8, i32, ptr, %struct.timeval, i32, %struct.pmix_list_t }
%struct.pmix_output_desc_t = type { i8, i8, i32, i8, i32, ptr, ptr, i32, ptr, i32, i8, i8, i8, i8, ptr, i32, i32 }
%struct.pmix_cb_t = type { %struct.pmix_list_item_t, %struct.event, %struct.pmix_lock_t, i8, i32, i32, i8, %struct.pmix_buffer_t, %union.anon.9, i64, ptr, %struct.pmix_name_t, ptr, ptr, ptr, ptr, i64, ptr, i64, ptr, i8, i64, %struct.pmix_list_t, i8, ptr, i8, ptr, ptr }
%struct.pmix_buffer_t = type { %struct.pmix_object_t, i8, ptr, ptr, ptr, i64, i64 }
%union.anon.9 = type { ptr }
%struct.pmix_name_t = type { ptr, i32 }
%struct.pmix_peer_t = type { %struct.pmix_object_t, ptr, ptr, %struct.pmix_proc_type_t, i16, i32, i32, i32, i8, %struct.event, i8, %struct.event, i8, %struct.pmix_list_t, ptr, ptr, i32, %struct.pmix_epilog_t }
%struct.pmix_epilog_t = type { i32, i32, %struct.pmix_list_t, %struct.pmix_list_t, %struct.pmix_list_t }
%struct.pmix_namespace_t = type { %struct.pmix_list_item_t, ptr, %struct.anon.10, i32, i64, i64, i8, i8, ptr, i64, i64, %struct.pmix_list_t, %struct.pmix_personality_t, %struct.pmix_epilog_t, %struct.pmix_list_t, %struct.pmix_iof_flags_t, %struct.pmix_list_t }
%struct.anon.10 = type { i8, i8, i8 }
%struct.pmix_personality_t = type { i8, ptr, ptr, ptr }
%struct.pmix_gds_base_module_t = type { ptr, i8, ptr, ptr, ptr, ptr, ptr, ptr, ptr, ptr, ptr, ptr, ptr, ptr, ptr, ptr, ptr, ptr, ptr }
%struct.pmix_bfrops_module_t = type { ptr, ptr, ptr, ptr, ptr, ptr, ptr, ptr, ptr, ptr, ptr, ptr, ptr }

@.str.18 = private unnamed_addr constant [37 x i8] c"PMIX ERROR: %s in file %s at line %d\00", align 1
@.str.19 = private unnamed_addr constant [17 x i8] c"tool/pmix_tool.c\00", align 1
@pmix_client_globals = external global %struct.pmix_client_globals_t, align 8
@pmix_output_info = external global [0 x %struct.pmix_output_desc_t], align 8
@pmix_gds_base_output = external global i32, align 4
@pmix_bfrops_base_output = external global i32, align 4
@.str.76 = private unnamed_addr constant [34 x i8] c"[%s:%d] UNPACK version %s type %s\00", align 1
@.str.84 = private unnamed_addr constant [35 x i8] c"[%s:%d] GDS STORE JOB INFO WITH %s\00", align 1

; Function Attrs: inlinehint nounwind uwtable
define internal void @pmix_mutex_unlock(ptr noundef %0) #3 {
  %2 = alloca ptr, align 8
  store ptr %0, ptr %2, align 8, !tbaa !173
  %3 = load ptr, ptr %2, align 8, !tbaa !173
  %4 = getelementptr inbounds nuw %struct.pmix_mutex_t, ptr %3, i32 0, i32 1
  %5 = call i32 @pthread_mutex_unlock(ptr noundef %4) #13
  ret void
}

; Function Attrs: inlinehint nounwind uwtable
define internal void @pmix_mutex_lock(ptr noundef %0) #3 {
  %2 = alloca ptr, align 8
  store ptr %0, ptr %2, align 8, !tbaa !173
  %3 = load ptr, ptr %2, align 8, !tbaa !173
  %4 = getelementptr inbounds nuw %struct.pmix_mutex_t, ptr %3, i32 0, i32 1
  %5 = call i32 @pthread_mutex_lock(ptr noundef %4) #13
  ret void
}

; Function Attrs: inlinehint nounwind uwtable
define internal void @pmix_atomic_wmb() #3 {
  fence release
  ret void
}

; Function Attrs: nounwind uwtable
define internal void @job_data(ptr noundef %0, ptr noundef %1, ptr noundef %2, ptr noundef %3) #0 {
  %5 = alloca ptr, align 8
  %6 = alloca ptr, align 8
  %7 = alloca ptr, align 8
  %8 = alloca ptr, align 8
  %9 = alloca i32, align 4
  %10 = alloca ptr, align 8
  %11 = alloca i32, align 4
  %12 = alloca ptr, align 8
  %13 = alloca i32, align 4
  %14 = alloca ptr, align 8
  store ptr %0, ptr %5, align 8, !tbaa !148
  store ptr %1, ptr %6, align 8, !tbaa !60
  store ptr %2, ptr %7, align 8, !tbaa !60
  store ptr %3, ptr %8, align 8, !tbaa !60
  call void @llvm.lifetime.start.p0(i64 4, ptr %9) #13
  call void @llvm.lifetime.start.p0(i64 8, ptr %10) #13
  call void @llvm.lifetime.start.p0(i64 4, ptr %11) #13
  store i32 1, ptr %11, align 4, !tbaa !14
  call void @llvm.lifetime.start.p0(i64 8, ptr %12) #13
  %15 = load ptr, ptr %8, align 8, !tbaa !60
  store ptr %15, ptr %12, align 8, !tbaa !60
  br label %16

16:                                               ; preds = %4
  %17 = load i32, ptr @pmix_bfrops_base_output, align 4, !tbaa !14
  %18 = icmp sge i32 %17, 0
  br i1 %18, label %19, label %40

19:                                               ; preds = %16
  %20 = load i32, ptr @pmix_bfrops_base_output, align 4, !tbaa !14
  %21 = icmp slt i32 %20, 64
  br i1 %21, label %22, label %40

22:                                               ; preds = %19
  %23 = load i32, ptr @pmix_bfrops_base_output, align 4, !tbaa !14
  %24 = sext i32 %23 to i64
  %25 = getelementptr inbounds [0 x %struct.pmix_output_desc_t], ptr @pmix_output_info, i64 0, i64 %24
  %26 = getelementptr inbounds nuw %struct.pmix_output_desc_t, ptr %25, i32 0, i32 2
  %27 = load i32, ptr %26, align 4, !tbaa !88
  %28 = icmp sge i32 %27, 2
  br i1 %28, label %29, label %40

29:                                               ; preds = %22
  %30 = load i32, ptr @pmix_bfrops_base_output, align 4, !tbaa !14
  %31 = load ptr, ptr @pmix_client_globals, align 8, !tbaa !74
  %32 = getelementptr inbounds nuw %struct.pmix_peer_t, ptr %31, i32 0, i32 1
  %33 = load ptr, ptr %32, align 8, !tbaa !79
  %34 = getelementptr inbounds nuw %struct.pmix_namespace_t, ptr %33, i32 0, i32 12
  %35 = getelementptr inbounds nuw %struct.pmix_personality_t, ptr %34, i32 0, i32 1
  %36 = load ptr, ptr %35, align 8, !tbaa !97
  %37 = getelementptr inbounds nuw %struct.pmix_bfrops_module_t, ptr %36, i32 0, i32 0
  %38 = load ptr, ptr %37, align 8, !tbaa !143
  %39 = call ptr @PMIx_Data_type_string(i16 noundef zeroext 3)
  call void (i32, ptr, ...) @pmix_output(i32 noundef %30, ptr noundef @.str.76, ptr noundef @.str.19, i32 noundef 368, ptr noundef %38, ptr noundef %39)
  br label %40

40:                                               ; preds = %29, %22, %19, %16
  %41 = load ptr, ptr %7, align 8, !tbaa !60
  %42 = getelementptr inbounds nuw %struct.pmix_buffer_t, ptr %41, i32 0, i32 1
  %43 = load i8, ptr %42, align 8, !tbaa !145
  %44 = zext i8 %43 to i32
  %45 = load ptr, ptr @pmix_client_globals, align 8, !tbaa !74
  %46 = getelementptr inbounds nuw %struct.pmix_peer_t, ptr %45, i32 0, i32 1
  %47 = load ptr, ptr %46, align 8, !tbaa !79
  %48 = getelementptr inbounds nuw %struct.pmix_namespace_t, ptr %47, i32 0, i32 12
  %49 = getelementptr inbounds nuw %struct.pmix_personality_t, ptr %48, i32 0, i32 0
  %50 = load i8, ptr %49, align 8, !tbaa !104
  %51 = zext i8 %50 to i32
  %52 = icmp eq i32 %44, %51
  br i1 %52, label %53, label %64

53:                                               ; preds = %40
  %54 = load ptr, ptr @pmix_client_globals, align 8, !tbaa !74
  %55 = getelementptr inbounds nuw %struct.pmix_peer_t, ptr %54, i32 0, i32 1
  %56 = load ptr, ptr %55, align 8, !tbaa !79
  %57 = getelementptr inbounds nuw %struct.pmix_namespace_t, ptr %56, i32 0, i32 12
  %58 = getelementptr inbounds nuw %struct.pmix_personality_t, ptr %57, i32 0, i32 1
  %59 = load ptr, ptr %58, align 8, !tbaa !97
  %60 = getelementptr inbounds nuw %struct.pmix_bfrops_module_t, ptr %59, i32 0, i32 4
  %61 = load ptr, ptr %60, align 8, !tbaa !183
  %62 = load ptr, ptr %7, align 8, !tbaa !60
  %63 = call i32 %61(ptr noundef %62, ptr noundef %10, ptr noundef %11, i16 noundef zeroext 3)
  store i32 %63, ptr %9, align 4, !tbaa !14
  br label %65

64:                                               ; preds = %40
  store i32 -20, ptr %9, align 4, !tbaa !14
  br label %65

65:                                               ; preds = %64, %53
  br label %66

66:                                               ; preds = %65
  br label %67

67:                                               ; preds = %66
  %68 = load i32, ptr %9, align 4, !tbaa !14
  %69 = icmp ne i32 0, %68
  br i1 %69, label %70, label %98

70:                                               ; preds = %67
  br label %71

71:                                               ; preds = %70
  %72 = load i32, ptr %9, align 4, !tbaa !14
  %73 = icmp ne i32 -2, %72
  br i1 %73, label %74, label %77

74:                                               ; preds = %71
  %75 = load i32, ptr %9, align 4, !tbaa !14
  %76 = call ptr @PMIx_Error_string(i32 noundef %75)
  call void (i32, ptr, ...) @pmix_output(i32 noundef 0, ptr noundef @.str.18, ptr noundef %76, ptr noundef @.str.19, i32 noundef 370)
  br label %77

77:                                               ; preds = %74, %71
  br label %78

78:                                               ; preds = %77
  br label %79

79:                                               ; preds = %78
  %80 = load ptr, ptr %12, align 8, !tbaa !60
  %81 = getelementptr inbounds nuw %struct.pmix_cb_t, ptr %80, i32 0, i32 4
  store i32 -1, ptr %81, align 4, !tbaa !160
  call void @pmix_atomic_wmb()
  br label %82

82:                                               ; preds = %79
  %83 = load ptr, ptr %12, align 8, !tbaa !60
  %84 = getelementptr inbounds nuw %struct.pmix_cb_t, ptr %83, i32 0, i32 2
  %85 = getelementptr inbounds nuw %struct.pmix_lock_t, ptr %84, i32 0, i32 1
  call void @pmix_mutex_lock(ptr noundef %85)
  %86 = load ptr, ptr %12, align 8, !tbaa !60
  %87 = getelementptr inbounds nuw %struct.pmix_cb_t, ptr %86, i32 0, i32 2
  %88 = getelementptr inbounds nuw %struct.pmix_lock_t, ptr %87, i32 0, i32 3
  store volatile i8 0, ptr %88, align 8, !tbaa !155
  call void @pmix_atomic_wmb()
  %89 = load ptr, ptr %12, align 8, !tbaa !60
  %90 = getelementptr inbounds nuw %struct.pmix_cb_t, ptr %89, i32 0, i32 2
  %91 = getelementptr inbounds nuw %struct.pmix_lock_t, ptr %90, i32 0, i32 2
  %92 = call i32 @pthread_cond_broadcast(ptr noundef %91) #13
  %93 = load ptr, ptr %12, align 8, !tbaa !60
  %94 = getelementptr inbounds nuw %struct.pmix_cb_t, ptr %93, i32 0, i32 2
  %95 = getelementptr inbounds nuw %struct.pmix_lock_t, ptr %94, i32 0, i32 1
  call void @pmix_mutex_unlock(ptr noundef %95)
  br label %96

96:                                               ; preds = %82
  br label %97

97:                                               ; preds = %96
  store i32 1, ptr %13, align 4
  br label %152

98:                                               ; preds = %67
  br label %99

99:                                               ; preds = %98
  call void @llvm.lifetime.start.p0(i64 8, ptr %14) #13
  %100 = load ptr, ptr @pmix_client_globals, align 8, !tbaa !74
  %101 = getelementptr inbounds nuw %struct.pmix_peer_t, ptr %100, i32 0, i32 1
  %102 = load ptr, ptr %101, align 8, !tbaa !79
  %103 = getelementptr inbounds nuw %struct.pmix_namespace_t, ptr %102, i32 0, i32 12
  %104 = getelementptr inbounds nuw %struct.pmix_personality_t, ptr %103, i32 0, i32 3
  %105 = load ptr, ptr %104, align 8, !tbaa !105
  store ptr %105, ptr %14, align 8, !tbaa !60
  %106 = load i32, ptr @pmix_gds_base_output, align 4, !tbaa !14
  %107 = icmp sge i32 %106, 0
  br i1 %107, label %108, label %123

108:                                              ; preds = %99
  %109 = load i32, ptr @pmix_gds_base_output, align 4, !tbaa !14
  %110 = icmp slt i32 %109, 64
  br i1 %110, label %111, label %123

111:                                              ; preds = %108
  %112 = load i32, ptr @pmix_gds_base_output, align 4, !tbaa !14
  %113 = sext i32 %112 to i64
  %114 = getelementptr inbounds [0 x %struct.pmix_output_desc_t], ptr @pmix_output_info, i64 0, i64 %113
  %115 = getelementptr inbounds nuw %struct.pmix_output_desc_t, ptr %114, i32 0, i32 2
  %116 = load i32, ptr %115, align 4, !tbaa !88
  %117 = icmp sge i32 %116, 1
  br i1 %117, label %118, label %123

118:                                              ; preds = %111
  %119 = load i32, ptr @pmix_gds_base_output, align 4, !tbaa !14
  %120 = load ptr, ptr %14, align 8, !tbaa !60
  %121 = getelementptr inbounds nuw %struct.pmix_gds_base_module_t, ptr %120, i32 0, i32 0
  %122 = load ptr, ptr %121, align 8, !tbaa !122
  call void (i32, ptr, ...) @pmix_output(i32 noundef %119, ptr noundef @.str.84, ptr noundef @.str.19, i32 noundef 378, ptr noundef %122)
  br label %123

123:                                              ; preds = %118, %111, %108, %99
  %124 = load ptr, ptr %14, align 8, !tbaa !60
  %125 = getelementptr inbounds nuw %struct.pmix_gds_base_module_t, ptr %124, i32 0, i32 7
  %126 = load ptr, ptr %125, align 8, !tbaa !219
  %127 = load ptr, ptr %10, align 8, !tbaa !12
  %128 = load ptr, ptr %7, align 8, !tbaa !60
  %129 = call i32 %126(ptr noundef %127, ptr noundef %128)
  %130 = load ptr, ptr %12, align 8, !tbaa !60
  %131 = getelementptr inbounds nuw %struct.pmix_cb_t, ptr %130, i32 0, i32 4
  store i32 %129, ptr %131, align 4, !tbaa !160
  call void @llvm.lifetime.end.p0(i64 8, ptr %14) #13
  br label %132

132:                                              ; preds = %123
  br label %133

133:                                              ; preds = %132
  %134 = load ptr, ptr %12, align 8, !tbaa !60
  %135 = getelementptr inbounds nuw %struct.pmix_cb_t, ptr %134, i32 0, i32 4
  store i32 0, ptr %135, align 4, !tbaa !160
  call void @pmix_atomic_wmb()
  br label %136

136:                                              ; preds = %133
  %137 = load ptr, ptr %12, align 8, !tbaa !60
  %138 = getelementptr inbounds nuw %struct.pmix_cb_t, ptr %137, i32 0, i32 2
  %139 = getelementptr inbounds nuw %struct.pmix_lock_t, ptr %138, i32 0, i32 1
  call void @pmix_mutex_lock(ptr noundef %139)
  %140 = load ptr, ptr %12, align 8, !tbaa !60
  %141 = getelementptr inbounds nuw %struct.pmix_cb_t, ptr %140, i32 0, i32 2
  %142 = getelementptr inbounds nuw %struct.pmix_lock_t, ptr %141, i32 0, i32 3
  store volatile i8 0, ptr %142, align 8, !tbaa !155
  call void @pmix_atomic_wmb()
  %143 = load ptr, ptr %12, align 8, !tbaa !60
  %144 = getelementptr inbounds nuw %struct.pmix_cb_t, ptr %143, i32 0, i32 2
  %145 = getelementptr inbounds nuw %struct.pmix_lock_t, ptr %144, i32 0, i32 2
  %146 = call i32 @pthread_cond_broadcast(ptr noundef %145) #13
  %147 = load ptr, ptr %12, align 8, !tbaa !60
  %148 = getelementptr inbounds nuw %struct.pmix_cb_t, ptr %147, i32 0, i32 2
  %149 = getelementptr inbounds nuw %struct.pmix_lock_t, ptr %148, i32 0, i32 1
  call void @pmix_mutex_unlock(ptr noundef %149)
  br label %150

150:                                              ; preds = %136
  br label %151

151:                                              ; preds = %150
  store i32 0, ptr %13, align 4
  br label %152

152:                                              ; preds = %151, %97
  call void @llvm.lifetime.end.p0(i64 8, ptr %12) #13
  call void @llvm.lifetime.end.p0(i64 4, ptr %11) #13
  call void @llvm.lifetime.end.p0(i64 8, ptr %10) #13
  call void @llvm.lifetime.end.p0(i64 4, ptr %9) #13
  %153 = load i32, ptr %13, align 4
  switch i32 %153, label %155 [
    i32 0, label %154
    i32 1, label %154
  ]

154:                                              ; preds = %152, %152
  ret void

155:                                              ; preds = %152
  unreachable
}