; Function Attrs: nounwind uwtable
define internal void @job_data(ptr readnone captures(none) %0, ptr readnone captures(none) %1, ptr noundef %2, ptr noundef initializes((500, 504)) %3) #0 {
  %5 = alloca ptr, align 8
  %6 = alloca i32, align 4
  call void @llvm.lifetime.start.p0(i64 8, ptr nonnull %5) #19
  call void @llvm.lifetime.start.p0(i64 4, ptr nonnull %6) #19
  store i32 1, ptr %6, align 4, !tbaa !49
  %7 = load i32, ptr @pmix_bfrops_base_output, align 4, !tbaa !49
  %or.cond = icmp ult i32 %7, 64
  br i1 %or.cond, label %8, label %21

8:                                                ; preds = %4
  %9 = zext nneg i32 %7 to i64
  %10 = getelementptr inbounds nuw [0 x %struct.pmix_output_desc_t], ptr @pmix_output_info, i64 0, i64 %9, i32 2
  %11 = load i32, ptr %10, align 4, !tbaa !86
  %12 = icmp sgt i32 %11, 1
  br i1 %12, label %13, label %21

13:                                               ; preds = %8
  %14 = load ptr, ptr @pmix_client_globals, align 8, !tbaa !71
  %15 = getelementptr inbounds nuw i8, ptr %14, i64 120
  %16 = load ptr, ptr %15, align 8, !tbaa !76
  %17 = getelementptr inbounds nuw i8, ptr %16, i64 488
  %18 = load ptr, ptr %17, align 8, !tbaa !95
  %19 = load ptr, ptr %18, align 8, !tbaa !143
  %20 = tail call ptr @PMIx_Data_type_string(i16 noundef zeroext 3) #19
  tail call void (i32, ptr, ...) @pmix_output(i32 noundef %7, ptr noundef nonnull @.str.76, ptr noundef nonnull @.str.19, i32 noundef 368, ptr noundef %19, ptr noundef %20) #19
  br label %21

21:                                               ; preds = %13, %8, %4
  %22 = getelementptr inbounds nuw i8, ptr %2, i64 120
  %23 = load i8, ptr %22, align 8, !tbaa !145
  %24 = load ptr, ptr @pmix_client_globals, align 8, !tbaa !71
  %25 = getelementptr inbounds nuw i8, ptr %24, i64 120
  %26 = load ptr, ptr %25, align 8, !tbaa !76
  %27 = getelementptr inbounds nuw i8, ptr %26, i64 480
  %28 = load i8, ptr %27, align 8, !tbaa !102
  %29 = icmp eq i8 %23, %28
  br i1 %29, label %30, label %.thread

30:                                               ; preds = %21
  %31 = getelementptr inbounds nuw i8, ptr %26, i64 488
  %32 = load ptr, ptr %31, align 8, !tbaa !95
  %33 = getelementptr inbounds nuw i8, ptr %32, i64 32
  %34 = load ptr, ptr %33, align 8, !tbaa !179
  %35 = call i32 %34(ptr noundef nonnull %2, ptr noundef nonnull %5, ptr noundef nonnull %6, i16 noundef zeroext 3) #19
  switch i32 %35, label %.thread [
    i32 0, label %37
    i32 -2, label %56
  ]

.thread:                                          ; preds = %21, %30
  %.026 = phi i32 [ %35, %30 ], [ -20, %21 ]
  %36 = call ptr @PMIx_Error_string(i32 noundef %.026) #19
  call void (i32, ptr, ...) @pmix_output(i32 noundef 0, ptr noundef nonnull @.str.18, ptr noundef %36, ptr noundef nonnull @.str.19, i32 noundef 370) #19
  br label %56

37:                                               ; preds = %30
  %38 = load ptr, ptr @pmix_client_globals, align 8, !tbaa !71
  %39 = getelementptr inbounds nuw i8, ptr %38, i64 120
  %40 = load ptr, ptr %39, align 8, !tbaa !76
  %41 = getelementptr inbounds nuw i8, ptr %40, i64 504
  %42 = load ptr, ptr %41, align 8, !tbaa !103
  %43 = load i32, ptr @pmix_gds_base_output, align 4, !tbaa !49
  %or.cond3 = icmp ult i32 %43, 64
  br i1 %or.cond3, label %44, label %51

44:                                               ; preds = %37
  %45 = zext nneg i32 %43 to i64
  %46 = getelementptr inbounds nuw [0 x %struct.pmix_output_desc_t], ptr @pmix_output_info, i64 0, i64 %45, i32 2
  %47 = load i32, ptr %46, align 4, !tbaa !86
  %48 = icmp sgt i32 %47, 0
  br i1 %48, label %49, label %51

49:                                               ; preds = %44
  %50 = load ptr, ptr %42, align 8, !tbaa !114
  call void (i32, ptr, ...) @pmix_output(i32 noundef %43, ptr noundef nonnull @.str.84, ptr noundef nonnull @.str.19, i32 noundef 378, ptr noundef %50) #19
  br label %51

51:                                               ; preds = %49, %44, %37
  %52 = getelementptr inbounds nuw i8, ptr %42, i64 56
  %53 = load ptr, ptr %52, align 8, !tbaa !193
  %54 = load ptr, ptr %5, align 8, !tbaa !111
  %55 = call i32 %53(ptr noundef %54, ptr noundef nonnull %2) #19
  br label %56

56:                                               ; preds = %.thread, %30, %51
  %.sink = phi i32 [ 0, %51 ], [ -1, %30 ], [ -1, %.thread ]
  %57 = getelementptr inbounds nuw i8, ptr %3, i64 500
  store i32 %.sink, ptr %57, align 4, !tbaa !159
  fence release
  %58 = getelementptr inbounds nuw i8, ptr %3, i64 400
  %59 = call i32 @pthread_mutex_lock(ptr noundef nonnull %58) #19
  %60 = getelementptr inbounds nuw i8, ptr %3, i64 488
  store volatile i8 0, ptr %60, align 8, !tbaa !154
  fence release
  %61 = getelementptr inbounds nuw i8, ptr %3, i64 440
  %62 = call i32 @pthread_cond_broadcast(ptr noundef nonnull %61) #19
  %63 = call i32 @pthread_mutex_unlock(ptr noundef nonnull %58) #19
  call void @llvm.lifetime.end.p0(i64 4, ptr nonnull %6) #19
  call void @llvm.lifetime.end.p0(i64 8, ptr nonnull %5) #19
  ret void
}